; Function Attrs: mustprogress nofree norecurse nosync nounwind willreturn memory(read, argmem: readwrite, inaccessiblemem: readwrite) uwtable
define void @_ZTv0_n56_NK5arrow2io12StdoutStream4TellEv(ptr noalias nocapture writeonly sret(%"class.arrow::Result") align 8 %agg.result, ptr nocapture noundef readonly %this) unnamed_addr #7 align 2 {
entry:
  %0 = load ptr, ptr %this, align 8
  %1 = getelementptr inbounds i8, ptr %0, i64 -56
  %2 = load i64, ptr %1, align 8
  %3 = getelementptr inbounds i8, ptr %this, i64 %2
  tail call void @llvm.experimental.noalias.scope.decl(metadata !12)
  %pos_.i = getelementptr inbounds i8, ptr %3, i64 8
  store ptr null, ptr %agg.result, align 8, !alias.scope !12
  %storage_.i.i.i = getelementptr inbounds i8, ptr %agg.result, i64 8
  %4 = load i64, ptr %pos_.i, align 8, !noalias !12
  store i64 %4, ptr %storage_.i.i.i, align 8, !alias.scope !12
  ret void
}